(dp0
Vengine
p1
S'pdflatex'
p2
sVpackages
p3
c__builtin__
set
p4
((lp5
Vmulticol
p6
aVfootnote
p7
aVbabel
p8
aVabstract
p9
aVlistings
p10
aVlipsum
p11
aVdblfnote
p12
aVurl
p13
aVgraphicx
p14
aVinputenc
p15
atp16
Rp17
sVfiles_with_guttermarks
p18
g4
((lp19
V/Users/peixianwang/spring2016/mcb419/finalProject/paper/./paper.tex
p20
aV/Users/peixianwang/spring2016/mcb419/finalProject/paper/paper.tex
p21
aS'paper.tex'
p22
atp23
Rp24
sVsynctex
p25
I01
s.