(dp0
Vengine
p1
S'pdflatex'
p2
sVpackages
p3
c__builtin__
set
p4
((lp5
Vmulticol
p6
aVfootnote
p7
aVbabel
p8
aVabstract
p9
aVlistings
p10
aVlipsum
p11
aVdblfnote
p12
aVurl
p13
aVinputenc
p14
atp15
Rp16
sVfiles_with_guttermarks
p17
g4
((lp18
V/Users/peixianwang/spring2016/mcb419/finalProject/paper/./paper.tex
p19
aS'paper.tex'
p20
atp21
Rp22
sVsynctex
p23
I01
s.