(dp0
Vengine
p1
S'pdflatex'
p2
sVpackages
p3
c__builtin__
set
p4
((lp5
Vmulticol
p6
aVfootnote
p7
aVbabel
p8
aVabstract
p9
aVlistings
p10
aVlipsum
p11
aVdblfnote
p12
aVurl
p13
aValgpseudocode
p14
aVgraphicx
p15
aValgorithmicx
p16
aVinputenc
p17
atp18
Rp19
sVfiles_with_guttermarks
p20
g4
((lp21
V/Users/peixianwang/spring2016/mcb419/finalProject/paper/./paper.tex
p22
aV/Users/peixianwang/spring2016/mcb419/finalProject/paper/paper.tex
p23
aS'paper.tex'
p24
atp25
Rp26
sVsynctex
p27
I01
s.